target datalayout = "e-m:e-p270:32:32-p271:32:32-p272:64:64-i64:64-i128:128-f80:128-n8:16:32:64-S128"
target triple = "x86_64-pc-linux-gnu"

%"class.clang::ento::RangeSet" = type { ptr }
%"class.llvm::APSInt" = type { %"class.llvm::APInt.base", i8, [3 x i8] }
%"class.llvm::APInt.base" = type <{ %union.anon, i32 }>
%union.anon = type { i64 }
%"class.llvm::APInt" = type <{ %union.anon, i32, [4 x i8] }>

; Function Attrs: mustprogress nounwind uwtable
define linkonce_odr hidden noundef zeroext i1 @_ZNK4llvm5APInt12needsCleanupEv(ptr noundef nonnull align 8 dereferenceable(12) %0) #1 comdat align 2 {
  %2 = alloca ptr, align 8
  store ptr %0, ptr %2, align 8
  %3 = load ptr, ptr %2, align 8
  %4 = call noundef zeroext i1 @_ZNK4llvm5APInt12isSingleWordEv(ptr noundef nonnull align 8 dereferenceable(12) %3)
  %5 = xor i1 %4, true
  ret i1 %5
}

; Function Attrs: mustprogress nounwind uwtable
define linkonce_odr hidden noundef zeroext i1 @_ZNK4llvm5APInt12isSingleWordEv(ptr noundef nonnull align 8 dereferenceable(12) %0) #1 comdat align 2 {
  %2 = alloca ptr, align 8
  store ptr %0, ptr %2, align 8
  %3 = load ptr, ptr %2, align 8
  %4 = getelementptr inbounds nuw %"class.llvm::APInt", ptr %3, i32 0, i32 1
  %5 = load i32, ptr %4, align 8
  %6 = icmp ule i32 %5, 64
  ret i1 %6
}

; Function Attrs: mustprogress nounwind uwtable
define linkonce_odr hidden void @_ZN4llvm5APIntD2Ev(ptr noundef nonnull align 8 dereferenceable(12) %0) unnamed_addr #1 comdat align 2 {
  %2 = alloca ptr, align 8
  store ptr %0, ptr %2, align 8
  %3 = load ptr, ptr %2, align 8
  %4 = call noundef zeroext i1 @_ZNK4llvm5APInt12needsCleanupEv(ptr noundef nonnull align 8 dereferenceable(12) %3)
  br i1 %4, label %5, label %11

5:                                                ; preds = %1
  %6 = getelementptr inbounds nuw %"class.llvm::APInt", ptr %3, i32 0, i32 0
  %7 = load ptr, ptr %6, align 8
  %8 = icmp eq ptr %7, null
  br i1 %8, label %10, label %9

9:                                                ; preds = %5
  call void @_ZdaPv(ptr noundef %7) #16
  br label %10

10:                                               ; preds = %9, %5
  br label %11

11:                                               ; preds = %10, %1
  ret void
}

; Function Attrs: mustprogress nounwind uwtable
define linkonce_odr hidden void @_ZN4llvm5APIntC2ERKS0_(ptr noundef nonnull align 8 dereferenceable(12) %0, ptr noundef nonnull align 8 dereferenceable(12) %1) unnamed_addr #1 comdat align 2 {
  %3 = alloca ptr, align 8
  %4 = alloca ptr, align 8
  store ptr %0, ptr %3, align 8
  store ptr %1, ptr %4, align 8
  %5 = load ptr, ptr %3, align 8
  %6 = getelementptr inbounds nuw %"class.llvm::APInt", ptr %5, i32 0, i32 1
  %7 = load ptr, ptr %4, align 8
  %8 = getelementptr inbounds nuw %"class.llvm::APInt", ptr %7, i32 0, i32 1
  %9 = load i32, ptr %8, align 8
  store i32 %9, ptr %6, align 8
  %10 = call noundef zeroext i1 @_ZNK4llvm5APInt12isSingleWordEv(ptr noundef nonnull align 8 dereferenceable(12) %5)
  br i1 %10, label %11, label %16

11:                                               ; preds = %2
  %12 = load ptr, ptr %4, align 8
  %13 = getelementptr inbounds nuw %"class.llvm::APInt", ptr %12, i32 0, i32 0
  %14 = load i64, ptr %13, align 8
  %15 = getelementptr inbounds nuw %"class.llvm::APInt", ptr %5, i32 0, i32 0
  store i64 %14, ptr %15, align 8
  br label %18

16:                                               ; preds = %2
  %17 = load ptr, ptr %4, align 8
  call void @_ZN4llvm5APInt12initSlowCaseERKS0_(ptr noundef nonnull align 8 dereferenceable(12) %5, ptr noundef nonnull align 8 dereferenceable(12) %17)
  br label %18

18:                                               ; preds = %16, %11
  ret void
}

; Function Attrs: mustprogress nounwind uwtable
define linkonce_odr hidden noundef nonnull align 8 dereferenceable(13) ptr @_ZN4llvm6APSIntmmEv(ptr noundef nonnull align 8 dereferenceable(13) %0) #1 comdat align 2 {
  %2 = alloca ptr, align 8
  store ptr %0, ptr %2, align 8
  %3 = load ptr, ptr %2, align 8
  %4 = call noundef nonnull align 8 dereferenceable(12) ptr @_ZN4llvm5APIntmmEv(ptr noundef nonnull align 8 dereferenceable(12) %3)
  ret ptr %3
}

; Function Attrs: mustprogress nounwind uwtable
define linkonce_odr hidden noundef nonnull align 8 dereferenceable(13) ptr @_ZN4llvm6APSIntppEv(ptr noundef nonnull align 8 dereferenceable(13) %0) #1 comdat align 2 {
  %2 = alloca ptr, align 8
  store ptr %0, ptr %2, align 8
  %3 = load ptr, ptr %2, align 8
  %4 = call noundef nonnull align 8 dereferenceable(12) ptr @_ZN4llvm5APIntppEv(ptr noundef nonnull align 8 dereferenceable(12) %3)
  ret ptr %3
}

; Function Attrs: mustprogress nounwind uwtable
define linkonce_odr hidden void @_ZN4llvm6APSIntD2Ev(ptr noundef nonnull align 8 dereferenceable(13) %0) unnamed_addr #1 comdat align 2 {
  %2 = alloca ptr, align 8
  store ptr %0, ptr %2, align 8
  %3 = load ptr, ptr %2, align 8
  call void @_ZN4llvm5APIntD2Ev(ptr noundef nonnull align 8 dereferenceable(12) %3) #3
  ret void
}

; Function Attrs: mustprogress nounwind uwtable
define linkonce_odr hidden noundef zeroext i1 @_ZNK5clang4ento8RangeSet8containsEN4llvm6APSIntE(ptr noundef nonnull align 8 dereferenceable(8) %0, ptr noundef %1) #1 comdat align 2 {
  %3 = alloca ptr, align 8
  %4 = alloca ptr, align 8
  store ptr %0, ptr %3, align 8
  store ptr %1, ptr %4, align 8
  %5 = load ptr, ptr %3, align 8
  %6 = call noundef zeroext i1 @_ZNK5clang4ento8RangeSet12containsImplERN4llvm6APSIntE(ptr noundef nonnull align 8 dereferenceable(8) %5, ptr noundef nonnull align 8 dereferenceable(13) %1)
  ret i1 %6
}

; Function Attrs: mustprogress nounwind uwtable
define linkonce_odr hidden void @_ZN4llvm6APSIntC2ERKS0_(ptr noundef nonnull align 8 dereferenceable(13) %0, ptr noundef nonnull align 8 dereferenceable(13) %1) unnamed_addr #1 comdat align 2 {
  %3 = alloca ptr, align 8
  %4 = alloca ptr, align 8
  store ptr %0, ptr %3, align 8
  store ptr %1, ptr %4, align 8
  %5 = load ptr, ptr %3, align 8
  %6 = load ptr, ptr %4, align 8
  call void @_ZN4llvm5APIntC2ERKS0_(ptr noundef nonnull align 8 dereferenceable(12) %5, ptr noundef nonnull align 8 dereferenceable(12) %6)
  %7 = getelementptr inbounds nuw %"class.llvm::APSInt", ptr %5, i32 0, i32 1
  %8 = load ptr, ptr %4, align 8
  %9 = getelementptr inbounds nuw %"class.llvm::APSInt", ptr %8, i32 0, i32 1
  %10 = load i8, ptr %9, align 4
  %11 = trunc i8 %10 to i1
  %12 = zext i1 %11 to i8
  store i8 %12, ptr %7, align 4
  ret void
}

; Function Attrs: mustprogress nounwind uwtable
define dso_local ptr @_ZN5clang4ento8RangeSet7Factory11deletePointES1_RKN4llvm6APSIntE(ptr noundef nonnull align 8 dereferenceable(120) %0, ptr %1, ptr noundef nonnull align 8 dereferenceable(13) %2) #1 align 2 {
  %4 = alloca %"class.clang::ento::RangeSet", align 8
  %5 = alloca %"class.clang::ento::RangeSet", align 8
  %6 = alloca ptr, align 8
  %7 = alloca ptr, align 8
  %8 = alloca %"class.llvm::APSInt", align 8
  %9 = alloca %"class.llvm::APSInt", align 8
  %10 = alloca %"class.llvm::APSInt", align 8
  %11 = alloca %"class.clang::ento::RangeSet", align 8
  %12 = alloca %"class.llvm::APSInt", align 8
  %13 = alloca %"class.llvm::APSInt", align 8
  %14 = getelementptr inbounds nuw %"class.clang::ento::RangeSet", ptr %5, i32 0, i32 0
  store ptr %1, ptr %14, align 8
  store ptr %0, ptr %6, align 8
  store ptr %2, ptr %7, align 8
  %15 = load ptr, ptr %6, align 8
  %16 = load ptr, ptr %7, align 8
  call void @_ZN4llvm6APSIntC2ERKS0_(ptr noundef nonnull align 8 dereferenceable(13) %8, ptr noundef nonnull align 8 dereferenceable(13) %16)
  %17 = call noundef zeroext i1 @_ZNK5clang4ento8RangeSet8containsEN4llvm6APSIntE(ptr noundef nonnull align 8 dereferenceable(8) %5, ptr noundef %8)
  %18 = xor i1 %17, true
  call void @_ZN4llvm6APSIntD2Ev(ptr noundef nonnull align 8 dereferenceable(13) %8) #3
  br i1 %18, label %19, label %20

19:                                               ; preds = %3
  call void @llvm.memcpy.p0.p0.i64(ptr align 8 %4, ptr align 8 %5, i64 8, i1 false)
  br label %29

20:                                               ; preds = %3
  %21 = load ptr, ptr %7, align 8
  call void @_ZN4llvm6APSIntC2ERKS0_(ptr noundef nonnull align 8 dereferenceable(13) %9, ptr noundef nonnull align 8 dereferenceable(13) %21)
  %22 = load ptr, ptr %7, align 8
  call void @_ZN4llvm6APSIntC2ERKS0_(ptr noundef nonnull align 8 dereferenceable(13) %10, ptr noundef nonnull align 8 dereferenceable(13) %22)
  %23 = call noundef nonnull align 8 dereferenceable(13) ptr @_ZN4llvm6APSIntppEv(ptr noundef nonnull align 8 dereferenceable(13) %9)
  %24 = call noundef nonnull align 8 dereferenceable(13) ptr @_ZN4llvm6APSIntmmEv(ptr noundef nonnull align 8 dereferenceable(13) %10)
  call void @llvm.memcpy.p0.p0.i64(ptr align 8 %11, ptr align 8 %5, i64 8, i1 false)
  call void @_ZN4llvm6APSIntC2ERKS0_(ptr noundef nonnull align 8 dereferenceable(13) %12, ptr noundef nonnull align 8 dereferenceable(13) %9)
  call void @_ZN4llvm6APSIntC2ERKS0_(ptr noundef nonnull align 8 dereferenceable(13) %13, ptr noundef nonnull align 8 dereferenceable(13) %10)
  %25 = getelementptr inbounds nuw %"class.clang::ento::RangeSet", ptr %11, i32 0, i32 0
  %26 = load ptr, ptr %25, align 8
  %27 = call ptr @_ZN5clang4ento8RangeSet7Factory9intersectES1_N4llvm6APSIntES4_(ptr noundef nonnull align 8 dereferenceable(120) %15, ptr %26, ptr noundef %12, ptr noundef %13)
  %28 = getelementptr inbounds nuw %"class.clang::ento::RangeSet", ptr %4, i32 0, i32 0
  store ptr %27, ptr %28, align 8
  call void @_ZN4llvm6APSIntD2Ev(ptr noundef nonnull align 8 dereferenceable(13) %13) #3
  call void @_ZN4llvm6APSIntD2Ev(ptr noundef nonnull align 8 dereferenceable(13) %12) #3
  call void @_ZN4llvm6APSIntD2Ev(ptr noundef nonnull align 8 dereferenceable(13) %10) #3
  call void @_ZN4llvm6APSIntD2Ev(ptr noundef nonnull align 8 dereferenceable(13) %9) #3
  br label %29

29:                                               ; preds = %20, %19
  %30 = getelementptr inbounds nuw %"class.clang::ento::RangeSet", ptr %4, i32 0, i32 0
  %31 = load ptr, ptr %30, align 8
  ret ptr %31
}