; Function Attrs: mustprogress nounwind uwtable
define dso_local ptr @_ZN5clang4ento8RangeSet7Factory11deletePointES1_RKN4llvm6APSIntE(ptr noundef nonnull align 8 dereferenceable(120) %0, ptr %1, ptr noundef nonnull align 8 dereferenceable(13) %2) local_unnamed_addr #1 align 2 {
  %4 = alloca %"class.clang::ento::RangeSet", align 8
  %5 = alloca %"class.llvm::APSInt", align 8
  %6 = alloca %"class.llvm::APSInt", align 8
  %7 = alloca %"class.llvm::APSInt", align 8
  %8 = alloca %"class.llvm::APSInt", align 8
  %9 = alloca %"class.llvm::APSInt", align 8
  store ptr %1, ptr %4, align 8
  %10 = getelementptr inbounds nuw i8, ptr %5, i64 8
  %11 = getelementptr inbounds nuw i8, ptr %2, i64 8
  %12 = load i32, ptr %11, align 8
  store i32 %12, ptr %10, align 8
  %13 = icmp ult i32 %12, 65
  br i1 %13, label %14, label %16

14:                                               ; preds = %3
  %15 = load i64, ptr %2, align 8
  store i64 %15, ptr %5, align 8
  br label %_ZN4llvm6APSIntC2ERKS0_.exit

16:                                               ; preds = %3
  call void @_ZN4llvm5APInt12initSlowCaseERKS0_(ptr noundef nonnull align 8 dereferenceable(12) %5, ptr noundef nonnull align 8 dereferenceable(12) %2) #22
  br label %_ZN4llvm6APSIntC2ERKS0_.exit

_ZN4llvm6APSIntC2ERKS0_.exit:                     ; preds = %14, %16
  %17 = getelementptr inbounds nuw i8, ptr %5, i64 12
  %18 = getelementptr inbounds nuw i8, ptr %2, i64 12
  %19 = load i8, ptr %18, align 4
  %20 = and i8 %19, 1
  store i8 %20, ptr %17, align 4
  %21 = call noundef zeroext i1 @_ZNK5clang4ento8RangeSet12containsImplERN4llvm6APSIntE(ptr noundef nonnull align 8 dereferenceable(8) %4, ptr noundef nonnull align 8 dereferenceable(13) %5)
  %22 = load i32, ptr %10, align 8
  %23 = icmp ugt i32 %22, 64
  br i1 %23, label %24, label %_ZN4llvm6APSIntD2Ev.exit

24:                                               ; preds = %_ZN4llvm6APSIntC2ERKS0_.exit
  %25 = load ptr, ptr %5, align 8
  %26 = icmp eq ptr %25, null
  br i1 %26, label %_ZN4llvm6APSIntD2Ev.exit, label %27

27:                                               ; preds = %24
  call void @_ZdaPv(ptr noundef nonnull %25) #25
  br label %_ZN4llvm6APSIntD2Ev.exit

_ZN4llvm6APSIntD2Ev.exit:                         ; preds = %_ZN4llvm6APSIntC2ERKS0_.exit, %24, %27
  br i1 %21, label %28, label %_ZN4llvm6APSIntD2Ev.exit12

28:                                               ; preds = %_ZN4llvm6APSIntD2Ev.exit
  %29 = getelementptr inbounds nuw i8, ptr %6, i64 8
  %30 = load i32, ptr %11, align 8
  store i32 %30, ptr %29, align 8
  %31 = icmp ult i32 %30, 65
  %32 = getelementptr inbounds nuw i8, ptr %6, i64 12
  %33 = getelementptr inbounds nuw i8, ptr %7, i64 8
  br i1 %31, label %_ZN4llvm6APSIntC2ERKS0_.exit5.thread, label %_ZN4llvm6APSIntC2ERKS0_.exit5

_ZN4llvm6APSIntC2ERKS0_.exit5.thread:             ; preds = %28
  %34 = load i64, ptr %2, align 8
  store i64 %34, ptr %6, align 8
  %35 = load i8, ptr %18, align 4
  %36 = and i8 %35, 1
  store i8 %36, ptr %32, align 4
  store i32 %30, ptr %33, align 8
  br label %40

_ZN4llvm6APSIntC2ERKS0_.exit5:                    ; preds = %28
  call void @_ZN4llvm5APInt12initSlowCaseERKS0_(ptr noundef nonnull align 8 dereferenceable(12) %6, ptr noundef nonnull align 8 dereferenceable(12) %2) #22
  %.pre = load i32, ptr %11, align 8
  %37 = load i8, ptr %18, align 4
  %38 = and i8 %37, 1
  store i8 %38, ptr %32, align 4
  store i32 %.pre, ptr %33, align 8
  %39 = icmp ult i32 %.pre, 65
  br i1 %39, label %40, label %43

40:                                               ; preds = %_ZN4llvm6APSIntC2ERKS0_.exit5.thread, %_ZN4llvm6APSIntC2ERKS0_.exit5
  %41 = phi i8 [ %36, %_ZN4llvm6APSIntC2ERKS0_.exit5.thread ], [ %38, %_ZN4llvm6APSIntC2ERKS0_.exit5 ]
  %42 = load i64, ptr %2, align 8
  store i64 %42, ptr %7, align 8
  br label %_ZN4llvm6APSIntC2ERKS0_.exit6

43:                                               ; preds = %_ZN4llvm6APSIntC2ERKS0_.exit5
  call void @_ZN4llvm5APInt12initSlowCaseERKS0_(ptr noundef nonnull align 8 dereferenceable(12) %7, ptr noundef nonnull align 8 dereferenceable(12) %2) #22
  %.pre13 = load i8, ptr %18, align 4
  %.pre14 = and i8 %.pre13, 1
  br label %_ZN4llvm6APSIntC2ERKS0_.exit6

_ZN4llvm6APSIntC2ERKS0_.exit6:                    ; preds = %40, %43
  %.pre-phi = phi i8 [ %41, %40 ], [ %.pre14, %43 ]
  %44 = getelementptr inbounds nuw i8, ptr %7, i64 12
  store i8 %.pre-phi, ptr %44, align 4
  %45 = call noundef nonnull align 8 dereferenceable(12) ptr @_ZN4llvm5APIntppEv(ptr noundef nonnull align 8 dereferenceable(12) %6) #22
  %46 = call noundef nonnull align 8 dereferenceable(12) ptr @_ZN4llvm5APIntmmEv(ptr noundef nonnull align 8 dereferenceable(12) %7) #22
  %47 = getelementptr inbounds nuw i8, ptr %8, i64 8
  %48 = load i32, ptr %29, align 8
  store i32 %48, ptr %47, align 8
  %49 = icmp ult i32 %48, 65
  br i1 %49, label %50, label %52

50:                                               ; preds = %_ZN4llvm6APSIntC2ERKS0_.exit6
  %51 = load i64, ptr %6, align 8
  store i64 %51, ptr %8, align 8
  br label %_ZN4llvm6APSIntC2ERKS0_.exit7

52:                                               ; preds = %_ZN4llvm6APSIntC2ERKS0_.exit6
  call void @_ZN4llvm5APInt12initSlowCaseERKS0_(ptr noundef nonnull align 8 dereferenceable(12) %8, ptr noundef nonnull align 8 dereferenceable(12) %6) #22
  br label %_ZN4llvm6APSIntC2ERKS0_.exit7

_ZN4llvm6APSIntC2ERKS0_.exit7:                    ; preds = %50, %52
  %53 = getelementptr inbounds nuw i8, ptr %8, i64 12
  %54 = load i8, ptr %32, align 4
  %55 = and i8 %54, 1
  store i8 %55, ptr %53, align 4
  %56 = getelementptr inbounds nuw i8, ptr %9, i64 8
  %57 = load i32, ptr %33, align 8
  store i32 %57, ptr %56, align 8
  %58 = icmp ult i32 %57, 65
  br i1 %58, label %59, label %61

59:                                               ; preds = %_ZN4llvm6APSIntC2ERKS0_.exit7
  %60 = load i64, ptr %7, align 8
  store i64 %60, ptr %9, align 8
  br label %_ZN4llvm6APSIntC2ERKS0_.exit8

61:                                               ; preds = %_ZN4llvm6APSIntC2ERKS0_.exit7
  call void @_ZN4llvm5APInt12initSlowCaseERKS0_(ptr noundef nonnull align 8 dereferenceable(12) %9, ptr noundef nonnull align 8 dereferenceable(12) %7) #22
  br label %_ZN4llvm6APSIntC2ERKS0_.exit8

_ZN4llvm6APSIntC2ERKS0_.exit8:                    ; preds = %59, %61
  %62 = getelementptr inbounds nuw i8, ptr %9, i64 12
  %63 = load i8, ptr %44, align 4
  %64 = and i8 %63, 1
  store i8 %64, ptr %62, align 4
  %65 = call ptr @_ZN5clang4ento8RangeSet7Factory9intersectES1_N4llvm6APSIntES4_(ptr noundef nonnull align 8 dereferenceable(120) %0, ptr %1, ptr noundef nonnull %8, ptr noundef nonnull %9)
  %66 = load i32, ptr %56, align 8
  %67 = icmp ugt i32 %66, 64
  br i1 %67, label %68, label %_ZN4llvm6APSIntD2Ev.exit9

68:                                               ; preds = %_ZN4llvm6APSIntC2ERKS0_.exit8
  %69 = load ptr, ptr %9, align 8
  %70 = icmp eq ptr %69, null
  br i1 %70, label %_ZN4llvm6APSIntD2Ev.exit9, label %71

71:                                               ; preds = %68
  call void @_ZdaPv(ptr noundef nonnull %69) #25
  br label %_ZN4llvm6APSIntD2Ev.exit9

_ZN4llvm6APSIntD2Ev.exit9:                        ; preds = %_ZN4llvm6APSIntC2ERKS0_.exit8, %68, %71
  %72 = load i32, ptr %47, align 8
  %73 = icmp ugt i32 %72, 64
  br i1 %73, label %74, label %_ZN4llvm6APSIntD2Ev.exit10

74:                                               ; preds = %_ZN4llvm6APSIntD2Ev.exit9
  %75 = load ptr, ptr %8, align 8
  %76 = icmp eq ptr %75, null
  br i1 %76, label %_ZN4llvm6APSIntD2Ev.exit10, label %77

77:                                               ; preds = %74
  call void @_ZdaPv(ptr noundef nonnull %75) #25
  br label %_ZN4llvm6APSIntD2Ev.exit10

_ZN4llvm6APSIntD2Ev.exit10:                       ; preds = %_ZN4llvm6APSIntD2Ev.exit9, %74, %77
  %78 = load i32, ptr %33, align 8
  %79 = icmp ugt i32 %78, 64
  br i1 %79, label %80, label %_ZN4llvm6APSIntD2Ev.exit11

80:                                               ; preds = %_ZN4llvm6APSIntD2Ev.exit10
  %81 = load ptr, ptr %7, align 8
  %82 = icmp eq ptr %81, null
  br i1 %82, label %_ZN4llvm6APSIntD2Ev.exit11, label %83

83:                                               ; preds = %80
  call void @_ZdaPv(ptr noundef nonnull %81) #25
  br label %_ZN4llvm6APSIntD2Ev.exit11

_ZN4llvm6APSIntD2Ev.exit11:                       ; preds = %_ZN4llvm6APSIntD2Ev.exit10, %80, %83
  %84 = load i32, ptr %29, align 8
  %85 = icmp ugt i32 %84, 64
  br i1 %85, label %86, label %_ZN4llvm6APSIntD2Ev.exit12

86:                                               ; preds = %_ZN4llvm6APSIntD2Ev.exit11
  %87 = load ptr, ptr %6, align 8
  %88 = icmp eq ptr %87, null
  br i1 %88, label %_ZN4llvm6APSIntD2Ev.exit12, label %89

89:                                               ; preds = %86
  call void @_ZdaPv(ptr noundef nonnull %87) #25
  br label %_ZN4llvm6APSIntD2Ev.exit12

_ZN4llvm6APSIntD2Ev.exit12:                       ; preds = %89, %86, %_ZN4llvm6APSIntD2Ev.exit11, %_ZN4llvm6APSIntD2Ev.exit
  %.sroa.04.0 = phi ptr [ %1, %_ZN4llvm6APSIntD2Ev.exit ], [ %65, %_ZN4llvm6APSIntD2Ev.exit11 ], [ %65, %86 ], [ %65, %89 ]
  ret ptr %.sroa.04.0
}